target datalayout = "e-m:e-p270:32:32-p271:32:32-p272:64:64-i64:64-i128:128-f80:128-n8:16:32:64-S128"
target triple = "x86_64-pc-linux-gnu"

%struct.FunctionCallInfoBaseData = type { ptr, ptr, ptr, i32, i8, i16, [0 x %struct.NullableDatum] }
%struct.NullableDatum = type { i64, i8 }

; Function Attrs: inlinehint nounwind uwtable
define internal i64 @BoolGetDatum(i1 noundef zeroext %0) #2 {
  %2 = alloca i8, align 1
  %3 = zext i1 %0 to i8
  store i8 %3, ptr %2, align 1
  %4 = load i8, ptr %2, align 1, !range !7, !noundef !8
  %5 = trunc i8 %4 to i1
  %6 = select i1 %5, i32 1, i32 0
  %7 = sext i32 %6 to i64
  ret i64 %7
}

; Function Attrs: inlinehint nounwind uwtable
define internal signext i16 @DatumGetInt16(i64 noundef %0) #2 {
  %2 = alloca i64, align 8
  store i64 %0, ptr %2, align 8
  %3 = load i64, ptr %2, align 8
  %4 = trunc i64 %3 to i16
  ret i16 %4
}

; Function Attrs: inlinehint nounwind uwtable
define internal i32 @DatumGetInt32(i64 noundef %0) #2 {
  %2 = alloca i64, align 8
  store i64 %0, ptr %2, align 8
  %3 = load i64, ptr %2, align 8
  %4 = trunc i64 %3 to i32
  ret i32 %4
}

; Function Attrs: nounwind uwtable
define dso_local i64 @int42gt(ptr noundef %0) #0 {
  %2 = alloca ptr, align 8
  %3 = alloca i32, align 4
  %4 = alloca i16, align 2
  store ptr %0, ptr %2, align 8
  call void @llvm.lifetime.start.p0(i64 4, ptr %3) #10
  %5 = load ptr, ptr %2, align 8
  %6 = getelementptr inbounds nuw %struct.FunctionCallInfoBaseData, ptr %5, i32 0, i32 6
  %7 = getelementptr inbounds [0 x %struct.NullableDatum], ptr %6, i64 0, i64 0
  %8 = getelementptr inbounds nuw %struct.NullableDatum, ptr %7, i32 0, i32 0
  %9 = load i64, ptr %8, align 8
  %10 = call i32 @DatumGetInt32(i64 noundef %9)
  store i32 %10, ptr %3, align 4
  call void @llvm.lifetime.start.p0(i64 2, ptr %4) #10
  %11 = load ptr, ptr %2, align 8
  %12 = getelementptr inbounds nuw %struct.FunctionCallInfoBaseData, ptr %11, i32 0, i32 6
  %13 = getelementptr inbounds [0 x %struct.NullableDatum], ptr %12, i64 0, i64 1
  %14 = getelementptr inbounds nuw %struct.NullableDatum, ptr %13, i32 0, i32 0
  %15 = load i64, ptr %14, align 8
  %16 = call signext i16 @DatumGetInt16(i64 noundef %15)
  store i16 %16, ptr %4, align 2
  %17 = load i32, ptr %3, align 4
  %18 = load i16, ptr %4, align 2
  %19 = sext i16 %18 to i32
  %20 = icmp sgt i32 %17, %19
  %21 = call i64 @BoolGetDatum(i1 noundef zeroext %20)
  call void @llvm.lifetime.end.p0(i64 2, ptr %4) #10
  call void @llvm.lifetime.end.p0(i64 4, ptr %3) #10
  ret i64 %21
}